target datalayout = "e-m:e-p270:32:32-p271:32:32-p272:64:64-i64:64-i128:128-f80:128-n8:16:32:64-S128"
target triple = "x86_64-pc-linux-gnu"

%struct.UString = type { ptr, i32, i32 }

; Function Attrs: nounwind uwtable
define internal void @ustr_resize(ptr noundef %0, i32 noundef %1, ptr noundef %2) #0 {
  %4 = alloca ptr, align 8
  %5 = alloca i32, align 4
  %6 = alloca ptr, align 8
  store ptr %0, ptr %4, align 8, !tbaa !4
  store i32 %1, ptr %5, align 4, !tbaa !17
  store ptr %2, ptr %6, align 8, !tbaa !18
  %7 = load ptr, ptr %6, align 8, !tbaa !18
  %8 = load i32, ptr %7, align 4, !tbaa !17
  %9 = icmp sgt i32 %8, 0
  br i1 %9, label %10, label %11

10:                                               ; preds = %3
  br label %36

11:                                               ; preds = %3
  %12 = load ptr, ptr %4, align 8, !tbaa !4
  %13 = getelementptr inbounds nuw %struct.UString, ptr %12, i32 0, i32 0
  %14 = load ptr, ptr %13, align 8, !tbaa !9
  %15 = load i32, ptr %5, align 4, !tbaa !17
  %16 = add nsw i32 %15, 1
  %17 = sext i32 %16 to i64
  %18 = mul i64 2, %17
  %19 = call ptr @uprv_realloc_77(ptr noundef %14, i64 noundef %18) #8
  %20 = load ptr, ptr %4, align 8, !tbaa !4
  %21 = getelementptr inbounds nuw %struct.UString, ptr %20, i32 0, i32 0
  store ptr %19, ptr %21, align 8, !tbaa !9
  %22 = load ptr, ptr %4, align 8, !tbaa !4
  %23 = getelementptr inbounds nuw %struct.UString, ptr %22, i32 0, i32 0
  %24 = load ptr, ptr %23, align 8, !tbaa !9
  %25 = icmp eq ptr %24, null
  br i1 %25, label %26, label %32

26:                                               ; preds = %11
  %27 = load ptr, ptr %6, align 8, !tbaa !18
  store i32 7, ptr %27, align 4, !tbaa !17
  %28 = load ptr, ptr %4, align 8, !tbaa !4
  %29 = getelementptr inbounds nuw %struct.UString, ptr %28, i32 0, i32 2
  store i32 0, ptr %29, align 4, !tbaa !13
  %30 = load ptr, ptr %4, align 8, !tbaa !4
  %31 = getelementptr inbounds nuw %struct.UString, ptr %30, i32 0, i32 1
  store i32 0, ptr %31, align 8, !tbaa !14
  br label %36

32:                                               ; preds = %11
  %33 = load i32, ptr %5, align 4, !tbaa !17
  %34 = load ptr, ptr %4, align 8, !tbaa !4
  %35 = getelementptr inbounds nuw %struct.UString, ptr %34, i32 0, i32 2
  store i32 %33, ptr %35, align 4, !tbaa !13
  br label %36

36:                                               ; preds = %32, %26, %10
  ret void
}

; Function Attrs: nounwind uwtable
define dso_local void @ustr_ncat(ptr noundef %0, ptr noundef %1, i32 noundef %2, ptr noundef %3) #0 {
  %5 = alloca ptr, align 8
  %6 = alloca ptr, align 8
  %7 = alloca i32, align 4
  %8 = alloca ptr, align 8
  store ptr %0, ptr %5, align 8, !tbaa !4
  store ptr %1, ptr %6, align 8, !tbaa !4
  store i32 %2, ptr %7, align 4, !tbaa !17
  store ptr %3, ptr %8, align 8, !tbaa !18
  %9 = load ptr, ptr %8, align 8, !tbaa !18
  %10 = load i32, ptr %9, align 4, !tbaa !17
  %11 = icmp sgt i32 %10, 0
  br i1 %11, label %16, label %12

12:                                               ; preds = %4
  %13 = load ptr, ptr %5, align 8, !tbaa !4
  %14 = load ptr, ptr %6, align 8, !tbaa !4
  %15 = icmp eq ptr %13, %14
  br i1 %15, label %16, label %17

16:                                               ; preds = %12, %4
  br label %85

17:                                               ; preds = %12
  %18 = load ptr, ptr %5, align 8, !tbaa !4
  %19 = getelementptr inbounds nuw %struct.UString, ptr %18, i32 0, i32 2
  %20 = load i32, ptr %19, align 4, !tbaa !13
  %21 = load ptr, ptr %5, align 8, !tbaa !4
  %22 = getelementptr inbounds nuw %struct.UString, ptr %21, i32 0, i32 1
  %23 = load i32, ptr %22, align 8, !tbaa !14
  %24 = load i32, ptr %7, align 4, !tbaa !17
  %25 = add nsw i32 %23, %24
  %26 = icmp slt i32 %20, %25
  br i1 %26, label %27, label %53

27:                                               ; preds = %17
  %28 = load ptr, ptr %5, align 8, !tbaa !4
  %29 = load ptr, ptr %5, align 8, !tbaa !4
  %30 = getelementptr inbounds nuw %struct.UString, ptr %29, i32 0, i32 1
  %31 = load i32, ptr %30, align 8, !tbaa !14
  %32 = load i32, ptr %7, align 4, !tbaa !17
  %33 = add nsw i32 %31, %32
  %34 = icmp slt i32 %33, 128
  br i1 %34, label %35, label %36

35:                                               ; preds = %27
  br label %45

36:                                               ; preds = %27
  %37 = load ptr, ptr %5, align 8, !tbaa !4
  %38 = getelementptr inbounds nuw %struct.UString, ptr %37, i32 0, i32 1
  %39 = load i32, ptr %38, align 8, !tbaa !14
  %40 = mul nsw i32 2, %39
  %41 = load i32, ptr %7, align 4, !tbaa !17
  %42 = add nsw i32 %40, %41
  %43 = add nsw i32 %42, 128
  %44 = and i32 %43, -128
  br label %45

45:                                               ; preds = %36, %35
  %46 = phi i32 [ 128, %35 ], [ %44, %36 ]
  %47 = load ptr, ptr %8, align 8, !tbaa !18
  call void @ustr_resize(ptr noundef %28, i32 noundef %46, ptr noundef %47)
  %48 = load ptr, ptr %8, align 8, !tbaa !18
  %49 = load i32, ptr %48, align 4, !tbaa !17
  %50 = icmp sgt i32 %49, 0
  br i1 %50, label %51, label %52

51:                                               ; preds = %45
  br label %85

52:                                               ; preds = %45
  br label %53

53:                                               ; preds = %52, %17
  br label %54

54:                                               ; preds = %53
  %55 = load ptr, ptr %5, align 8, !tbaa !4
  %56 = getelementptr inbounds nuw %struct.UString, ptr %55, i32 0, i32 0
  %57 = load ptr, ptr %56, align 8, !tbaa !9
  %58 = load ptr, ptr %5, align 8, !tbaa !4
  %59 = getelementptr inbounds nuw %struct.UString, ptr %58, i32 0, i32 1
  %60 = load i32, ptr %59, align 8, !tbaa !14
  %61 = sext i32 %60 to i64
  %62 = getelementptr inbounds i16, ptr %57, i64 %61
  %63 = load ptr, ptr %6, align 8, !tbaa !4
  %64 = getelementptr inbounds nuw %struct.UString, ptr %63, i32 0, i32 0
  %65 = load ptr, ptr %64, align 8, !tbaa !9
  %66 = load i32, ptr %7, align 4, !tbaa !17
  %67 = sext i32 %66 to i64
  %68 = mul i64 2, %67
  call void @llvm.memcpy.p0.p0.i64(ptr align 2 %62, ptr align 2 %65, i64 %68, i1 false)
  br label %69

69:                                               ; preds = %54
  %70 = load ptr, ptr %6, align 8, !tbaa !4
  %71 = getelementptr inbounds nuw %struct.UString, ptr %70, i32 0, i32 1
  %72 = load i32, ptr %71, align 8, !tbaa !14
  %73 = load ptr, ptr %5, align 8, !tbaa !4
  %74 = getelementptr inbounds nuw %struct.UString, ptr %73, i32 0, i32 1
  %75 = load i32, ptr %74, align 8, !tbaa !14
  %76 = add nsw i32 %75, %72
  store i32 %76, ptr %74, align 8, !tbaa !14
  %77 = load ptr, ptr %5, align 8, !tbaa !4
  %78 = getelementptr inbounds nuw %struct.UString, ptr %77, i32 0, i32 0
  %79 = load ptr, ptr %78, align 8, !tbaa !9
  %80 = load ptr, ptr %5, align 8, !tbaa !4
  %81 = getelementptr inbounds nuw %struct.UString, ptr %80, i32 0, i32 1
  %82 = load i32, ptr %81, align 8, !tbaa !14
  %83 = sext i32 %82 to i64
  %84 = getelementptr inbounds i16, ptr %79, i64 %83
  store i16 0, ptr %84, align 2, !tbaa !19
  br label %85

85:                                               ; preds = %69, %51, %16
  ret void
}