; Function Attrs: nounwind uwtable
define dso_local void @ustr_ncat(ptr noundef %0, ptr noundef readonly %1, i32 noundef %2, ptr noundef captures(none) %3) local_unnamed_addr #1 {
  %5 = load i32, ptr %3, align 4, !tbaa !4
  %6 = icmp sgt i32 %5, 0
  %7 = icmp eq ptr %0, %1
  %or.cond = or i1 %7, %6
  br i1 %or.cond, label %45, label %8

8:                                                ; preds = %4
  %9 = getelementptr inbounds nuw i8, ptr %0, i64 12
  %10 = load i32, ptr %9, align 4, !tbaa !13
  %11 = getelementptr inbounds nuw i8, ptr %0, i64 8
  %12 = load i32, ptr %11, align 8, !tbaa !12
  %13 = add nsw i32 %12, %2
  %14 = icmp slt i32 %10, %13
  %.pre = load ptr, ptr %0, align 8, !tbaa !8
  br i1 %14, label %15, label %30

15:                                               ; preds = %8
  %16 = icmp slt i32 %13, 128
  %17 = shl nsw i32 %12, 1
  %18 = add nsw i32 %17, %2
  %19 = and i32 %18, -128
  %20 = add nsw i32 %19, 128
  %21 = select i1 %16, i32 128, i32 %20
  %22 = or disjoint i32 %21, 1
  %23 = sext i32 %22 to i64
  %24 = shl nsw i64 %23, 1
  %25 = tail call ptr @uprv_realloc_77(ptr noundef %.pre, i64 noundef %24) #9
  store ptr %25, ptr %0, align 8, !tbaa !8
  %26 = icmp eq ptr %25, null
  br i1 %26, label %27, label %ustr_resize.exit

27:                                               ; preds = %15
  store i32 7, ptr %3, align 4, !tbaa !4
  store i32 0, ptr %11, align 8, !tbaa !12
  br label %ustr_resize.exit

ustr_resize.exit:                                 ; preds = %15, %27
  %.sink = phi i32 [ 0, %27 ], [ %21, %15 ]
  store i32 %.sink, ptr %9, align 4, !tbaa !13
  %28 = load i32, ptr %3, align 4, !tbaa !4
  %29 = icmp sgt i32 %28, 0
  br i1 %29, label %45, label %ustr_resize.exit._crit_edge

ustr_resize.exit._crit_edge:                      ; preds = %ustr_resize.exit
  %.pre22 = load i32, ptr %11, align 8, !tbaa !12
  br label %30

30:                                               ; preds = %ustr_resize.exit._crit_edge, %8
  %31 = phi i32 [ %12, %8 ], [ %.pre22, %ustr_resize.exit._crit_edge ]
  %32 = phi ptr [ %.pre, %8 ], [ %25, %ustr_resize.exit._crit_edge ]
  %33 = sext i32 %31 to i64
  %34 = getelementptr inbounds i16, ptr %32, i64 %33
  %35 = load ptr, ptr %1, align 8, !tbaa !8
  %36 = sext i32 %2 to i64
  %37 = shl nsw i64 %36, 1
  tail call void @llvm.memcpy.p0.p0.i64(ptr align 2 %34, ptr align 2 %35, i64 %37, i1 false)
  %38 = getelementptr inbounds nuw i8, ptr %1, i64 8
  %39 = load i32, ptr %38, align 8, !tbaa !12
  %40 = load i32, ptr %11, align 8, !tbaa !12
  %41 = add nsw i32 %40, %39
  store i32 %41, ptr %11, align 8, !tbaa !12
  %42 = load ptr, ptr %0, align 8, !tbaa !8
  %43 = sext i32 %41 to i64
  %44 = getelementptr inbounds i16, ptr %42, i64 %43
  store i16 0, ptr %44, align 2, !tbaa !14
  br label %45

45:                                               ; preds = %ustr_resize.exit, %4, %30
  ret void
}